ccopy_reg
_reconstructor
p0
(cgoogle.oauth2.credentials
Credentials
p1
c__builtin__
object
p2
Ntp3
Rp4
(dp5
S'_token_uri'
p6
Vhttps://oauth2.googleapis.com/token
p7
sS'_scopes'
p8
(lp9
S'https://www.googleapis.com/auth/drive.metadata.readonly'
p10
aS'https://www.googleapis.com/auth/drive'
p11
asS'_id_token'
p12
NsS'token'
p13
Vya29.ImCJB4gmL3n6OL8C1LSJ1iGOl9N4rYnGhE8rJt8Dm4tQgYD64NIF-7Bh06R27dKzIm9K6g10SbzlyypDTWwqcQNjDJv_y90NV1fZRWF2B4RkC9tj9ChZXv3F_HnMy_3KDz0
p14
sS'_refresh_token'
p15
V1/Rgdu1RTWs889Hx58jXt5XZ4gF6SbaDunOdR5kKqvCxU
p16
sS'_client_secret'
p17
V3uUXQ8sGc7RrFrIMmdJpJApu
p18
sS'_client_id'
p19
V341227250279-p8km6o3giba6fdtlt5pjifq1p7q84itu.apps.googleusercontent.com
p20
sS'expiry'
p21
cdatetime
datetime
p22
(S'\x07\xe3\t\x14\x0f/\x01\x07\xf2\xee'
p23
tp24
Rp25
sb.