ccopy_reg
_reconstructor
p0
(cgoogle.oauth2.credentials
Credentials
p1
c__builtin__
object
p2
Ntp3
Rp4
(dp5
S'_token_uri'
p6
Vhttps://oauth2.googleapis.com/token
p7
sS'_client_secret'
p8
V3uUXQ8sGc7RrFrIMmdJpJApu
p9
sS'_id_token'
p10
NsS'token'
p11
Vya29.GluJB9zvp5uToiEMaZ5U1sOA0_7t_zCSYHIX4JdsZLEXlDstRAaEvvvX-YorGWjGrFVF3J7KKaQi-bZmXVmSD568nQOc2M6_2721glGlivjxxg8qTJnsGw85GXhx
p12
sS'_refresh_token'
p13
V1/Rgdu1RTWs889Hx58jXt5XZ4gF6SbaDunOdR5kKqvCxU
p14
sS'_scopes'
p15
(lp16
S'https://www.googleapis.com/auth/drive.metadata.readonly'
p17
aS'https://www.googleapis.com/auth/drive'
p18
asS'_client_id'
p19
V341227250279-p8km6o3giba6fdtlt5pjifq1p7q84itu.apps.googleusercontent.com
p20
sS'expiry'
p21
cdatetime
datetime
p22
(S'\x07\xe3\t\x14\x01\x1d+\t\xe2,'
p23
tp24
Rp25
sb.