ccopy_reg
_reconstructor
p0
(cgoogle.oauth2.credentials
Credentials
p1
c__builtin__
object
p2
Ntp3
Rp4
(dp5
S'_token_uri'
p6
Vhttps://oauth2.googleapis.com/token
p7
sS'_scopes'
p8
(lp9
S'https://www.googleapis.com/auth/drive.metadata.readonly'
p10
aS'https://www.googleapis.com/auth/drive'
p11
asS'_id_token'
p12
NsS'token'
p13
Vya29.GluJB60xt2ffhzNW5-GkzxvM75RydWjAitCRjGb8y-ldw3D9tc5pWM3OtbaqcicZWqaIy44JZ2VNL0i1B9Uvl5-aJC6eOecMBv2Qyfai7aph0IPcIZqa9mO0R_66
p14
sS'_refresh_token'
p15
V1/Rgdu1RTWs889Hx58jXt5XZ4gF6SbaDunOdR5kKqvCxU
p16
sS'_client_secret'
p17
V3uUXQ8sGc7RrFrIMmdJpJApu
p18
sS'_client_id'
p19
V341227250279-p8km6o3giba6fdtlt5pjifq1p7q84itu.apps.googleusercontent.com
p20
sS'expiry'
p21
cdatetime
datetime
p22
(S'\x07\xe3\t\x14\x03\x01\x0e\t_I'
p23
tp24
Rp25
sb.